target datalayout = "e-m:e-p270:32:32-p271:32:32-p272:64:64-i64:64-i128:128-f80:128-n8:16:32:64-S128"
target triple = "x86_64-pc-linux-gnu"

@g_assert_poison = external global ptr, align 8
@.str = private unnamed_addr constant [32 x i8] c"src/hotspot/share/c1/c1_LIR.cpp\00", align 1
@type2char_tab = external global [20 x i8], align 16

; Function Attrs: mustprogress nounwind uwtable
define linkonce_odr hidden noundef signext i8 @_Z9type2char9BasicType(i8 noundef zeroext %0) #1 comdat {
  %2 = alloca i8, align 1
  store i8 %0, ptr %2, align 1
  %3 = load i8, ptr %2, align 1
  %4 = zext i8 %3 to i32
  %5 = icmp ult i32 %4, 20
  br i1 %5, label %6, label %12

6:                                                ; preds = %1
  %7 = load i8, ptr %2, align 1
  %8 = zext i8 %7 to i64
  %9 = getelementptr inbounds [20 x i8], ptr @type2char_tab, i64 0, i64 %8
  %10 = load i8, ptr %9, align 1
  %11 = sext i8 %10 to i32
  br label %13

12:                                               ; preds = %1
  br label %13

13:                                               ; preds = %12, %6
  %14 = phi i32 [ %11, %6 ], [ 0, %12 ]
  %15 = trunc i32 %14 to i8
  ret i8 %15
}

; Function Attrs: mustprogress nounwind uwtable
define hidden noundef signext i8 @_ZN7LIR_Opr9type_charE9BasicType(i8 noundef zeroext %0) #1 align 2 {
  %2 = alloca i8, align 1
  %3 = alloca i8, align 1
  store i8 %0, ptr %3, align 1
  %4 = load i8, ptr %3, align 1
  %5 = zext i8 %4 to i32
  switch i32 %5, label %12 [
    i32 13, label %6
    i32 4, label %7
    i32 5, label %7
    i32 6, label %7
    i32 7, label %7
    i32 8, label %7
    i32 9, label %7
    i32 10, label %7
    i32 11, label %7
    i32 12, label %7
    i32 15, label %7
    i32 14, label %7
    i32 17, label %10
    i32 99, label %11
  ]

6:                                                ; preds = %1
  store i8 12, ptr %3, align 1
  br label %7

7:                                                ; preds = %6, %1, %1, %1, %1, %1, %1, %1, %1, %1, %1, %1
  %8 = load i8, ptr %3, align 1
  %9 = call noundef signext i8 @_Z9type2char9BasicType(i8 noundef zeroext %8)
  store i8 %9, ptr %2, align 1
  br label %16

10:                                               ; preds = %1
  store i8 77, ptr %2, align 1
  br label %16

11:                                               ; preds = %1
  store i8 63, ptr %2, align 1
  br label %16

12:                                               ; preds = %1
  br label %13

13:                                               ; preds = %12
  %14 = load ptr, ptr @g_assert_poison, align 8
  store i8 88, ptr %14, align 1
  call void @_Z28report_should_not_reach_herePKci(ptr noundef @.str, i32 noundef 118) #6
  unreachable

15:                                               ; No predecessors!
  store i8 63, ptr %2, align 1
  br label %16

16:                                               ; preds = %15, %11, %10, %7
  %17 = load i8, ptr %2, align 1
  ret i8 %17
}