; Function Attrs: mustprogress nounwind uwtable
define hidden noundef signext i8 @_ZN7LIR_Opr9type_charE9BasicType(i8 noundef zeroext %0) local_unnamed_addr #1 align 2 {
  switch i8 %0, label %7 [
    i8 13, label %2
    i8 4, label %_Z9type2char9BasicType.exit
    i8 5, label %_Z9type2char9BasicType.exit
    i8 6, label %_Z9type2char9BasicType.exit
    i8 7, label %_Z9type2char9BasicType.exit
    i8 8, label %_Z9type2char9BasicType.exit
    i8 9, label %_Z9type2char9BasicType.exit
    i8 10, label %_Z9type2char9BasicType.exit
    i8 11, label %_Z9type2char9BasicType.exit
    i8 12, label %_Z9type2char9BasicType.exit
    i8 15, label %_Z9type2char9BasicType.exit
    i8 14, label %_Z9type2char9BasicType.exit
    i8 17, label %9
    i8 99, label %6
  ]

2:                                                ; preds = %1
  br label %_Z9type2char9BasicType.exit

_Z9type2char9BasicType.exit:                      ; preds = %2, %1, %1, %1, %1, %1, %1, %1, %1, %1, %1, %1
  %.0 = phi i8 [ %0, %1 ], [ %0, %1 ], [ %0, %1 ], [ %0, %1 ], [ %0, %1 ], [ %0, %1 ], [ %0, %1 ], [ %0, %1 ], [ %0, %1 ], [ %0, %1 ], [ %0, %1 ], [ 12, %2 ]
  %3 = zext nneg i8 %.0 to i64
  %4 = getelementptr inbounds [20 x i8], ptr @type2char_tab, i64 0, i64 %3
  %5 = load i8, ptr %4, align 1
  br label %9

6:                                                ; preds = %1
  br label %9

7:                                                ; preds = %1
  %8 = load ptr, ptr @g_assert_poison, align 8
  store i8 88, ptr %8, align 1
  tail call void @_Z28report_should_not_reach_herePKci(ptr noundef nonnull @.str, i32 noundef 118) #12
  unreachable

9:                                                ; preds = %1, %6, %_Z9type2char9BasicType.exit
  %.03 = phi i8 [ 63, %6 ], [ %5, %_Z9type2char9BasicType.exit ], [ 77, %1 ]
  ret i8 %.03
}